; Function Attrs: nounwind uwtable
define internal noundef i32 @dissect_btad_apple_ibeacon(ptr noundef %0, ptr readnone captures(none) %1, ptr noundef %2, ptr readnone captures(none) %3) #1 {
  %5 = load i32, ptr @proto_btad_apple_ibeacon, align 4
  %6 = tail call i32 @tvb_captured_length(ptr noundef %0) #9
  %7 = tail call ptr @proto_tree_add_item(ptr noundef %2, i32 noundef %5, ptr noundef %0, i32 noundef 0, i32 noundef %6, i32 noundef 0) #9
  %8 = load i32, ptr @ett_btad_apple_ibeacon, align 4
  %9 = tail call ptr @proto_item_add_subtree(ptr noundef %7, i32 noundef %8) #9
  %10 = load i32, ptr @hf_btad_apple_ibeacon_uuid128, align 4
  %11 = tail call ptr @proto_tree_add_item(ptr noundef %9, i32 noundef %10, ptr noundef %0, i32 noundef 0, i32 noundef 16, i32 noundef 0) #9
  %12 = load i32, ptr @hf_btad_apple_ibeacon_major, align 4
  %13 = tail call ptr @proto_tree_add_item(ptr noundef %9, i32 noundef %12, ptr noundef %0, i32 noundef 16, i32 noundef 2, i32 noundef -2147483648) #9
  %14 = load i32, ptr @hf_btad_apple_ibeacon_minor, align 4
  %15 = tail call ptr @proto_tree_add_item(ptr noundef %9, i32 noundef %14, ptr noundef %0, i32 noundef 18, i32 noundef 2, i32 noundef -2147483648) #9
  ret i32 20
}